target datalayout = "e-m:e-p270:32:32-p271:32:32-p272:64:64-i64:64-i128:128-f80:128-n8:16:32:64-S128"
target triple = "x86_64-pc-linux-gnu"

%struct._lv_vector_draw_dsc_t = type { %struct._lv_vector_fill_dsc_t, %struct._lv_vector_stroke_dsc_t, %struct._lv_matrix_t, i32, %struct.lv_area_t }
%struct._lv_vector_fill_dsc_t = type { i32, %struct.lv_color32_t, i8, i32, %struct._lv_draw_image_dsc_t, %struct._lv_vector_gradient_t, %struct._lv_matrix_t }
%struct.lv_color32_t = type { i8, i8, i8, i8 }
%struct._lv_draw_image_dsc_t = type { %struct.lv_draw_dsc_base_t, ptr, %struct.lv_image_header_t, i32, i32, i32, i32, i32, %struct.lv_point_t, %struct.lv_color_t, i8, i8, i8, ptr, %struct.lv_area_t, i32, ptr }
%struct.lv_draw_dsc_base_t = type { ptr, i32, i32, i32, ptr, i64, ptr }
%struct.lv_image_header_t = type <{ i64, i32 }>
%struct.lv_point_t = type { i32, i32 }
%struct.lv_color_t = type { i8, i8, i8 }
%struct._lv_vector_gradient_t = type { i32, [2 x %struct.lv_gradient_stop_t], i16, float, float, float, float, float, float, float, i32 }
%struct.lv_gradient_stop_t = type { %struct.lv_color_t, i8, i8 }
%struct._lv_vector_stroke_dsc_t = type { i32, %struct.lv_color32_t, i8, float, %struct._lv_array_t, i32, i32, i16, %struct._lv_vector_gradient_t, %struct._lv_matrix_t }
%struct._lv_array_t = type { ptr, i32, i32, i32, i8 }
%struct._lv_matrix_t = type { [3 x [3 x float]] }
%struct.lv_area_t = type { i32, i32, i32, i32 }
%struct._lv_svg_render_obj = type { ptr, i32, ptr, %struct._lv_vector_draw_dsc_t, %struct._lv_matrix_t, ptr, ptr, ptr, ptr, ptr, ptr, ptr, ptr, ptr }
%struct._lv_tree_node_t = type { ptr, ptr, i32, i32, ptr }
%struct.lv_svg_render_text_t = type { %struct._lv_svg_render_obj, %struct._lv_array_t, ptr, float, i32, ptr, float, float, ptr, %struct.lv_area_t }

@.str = private unnamed_addr constant [11 x i8] c"sans-serif\00", align 1

; Function Attrs: nounwind uwtable
define internal void @_init_obj(ptr noundef %0, ptr noundef %1) #0 {
  %3 = alloca ptr, align 8
  %4 = alloca ptr, align 8
  store ptr %0, ptr %3, align 8, !tbaa !3
  store ptr %1, ptr %4, align 8, !tbaa !3
  %5 = load ptr, ptr %3, align 8, !tbaa !3
  %6 = getelementptr inbounds nuw %struct._lv_svg_render_obj, ptr %5, i32 0, i32 4
  call void @lv_matrix_identity(ptr noundef %6)
  ret void
}

; Function Attrs: nounwind uwtable
define internal void @_init_text(ptr noundef %0, ptr noundef %1) #0 {
  %3 = alloca ptr, align 8
  %4 = alloca ptr, align 8
  %5 = alloca ptr, align 8
  store ptr %0, ptr %3, align 8, !tbaa !3
  store ptr %1, ptr %4, align 8, !tbaa !3
  %6 = load ptr, ptr %3, align 8, !tbaa !3
  %7 = load ptr, ptr %4, align 8, !tbaa !3
  call void @_init_obj(ptr noundef %6, ptr noundef %7)
  call void @llvm.lifetime.start.p0(i64 8, ptr %5) #8
  %8 = load ptr, ptr %3, align 8, !tbaa !3
  store ptr %8, ptr %5, align 8, !tbaa !3
  %9 = call ptr @lv_strdup(ptr noundef @.str)
  %10 = load ptr, ptr %5, align 8, !tbaa !3
  %11 = getelementptr inbounds nuw %struct.lv_svg_render_text_t, ptr %10, i32 0, i32 2
  store ptr %9, ptr %11, align 8, !tbaa !193
  %12 = load ptr, ptr %5, align 8, !tbaa !3
  %13 = getelementptr inbounds nuw %struct.lv_svg_render_text_t, ptr %12, i32 0, i32 3
  store float 1.600000e+01, ptr %13, align 8, !tbaa !194
  %14 = load ptr, ptr %5, align 8, !tbaa !3
  %15 = getelementptr inbounds nuw %struct.lv_svg_render_text_t, ptr %14, i32 0, i32 4
  store i32 0, ptr %15, align 4, !tbaa !195
  %16 = load ptr, ptr %5, align 8, !tbaa !3
  %17 = getelementptr inbounds nuw %struct.lv_svg_render_text_t, ptr %16, i32 0, i32 5
  store ptr null, ptr %17, align 8, !tbaa !196
  %18 = load ptr, ptr %5, align 8, !tbaa !3
  %19 = getelementptr inbounds nuw %struct.lv_svg_render_text_t, ptr %18, i32 0, i32 7
  store float 0.000000e+00, ptr %19, align 4, !tbaa !197
  %20 = load ptr, ptr %5, align 8, !tbaa !3
  %21 = getelementptr inbounds nuw %struct.lv_svg_render_text_t, ptr %20, i32 0, i32 6
  store float 0.000000e+00, ptr %21, align 8, !tbaa !198
  %22 = load ptr, ptr %5, align 8, !tbaa !3
  %23 = getelementptr inbounds nuw %struct.lv_svg_render_text_t, ptr %22, i32 0, i32 1
  %24 = load ptr, ptr %4, align 8, !tbaa !3
  %25 = getelementptr inbounds nuw %struct._lv_tree_node_t, ptr %24, i32 0, i32 2
  %26 = load i32, ptr %25, align 8, !tbaa !61
  call void @lv_array_init(ptr noundef %23, i32 noundef %26, i32 noundef 8)
  %27 = call ptr @lv_vector_path_create(i32 noundef 0)
  %28 = load ptr, ptr %5, align 8, !tbaa !3
  %29 = getelementptr inbounds nuw %struct.lv_svg_render_text_t, ptr %28, i32 0, i32 8
  store ptr %27, ptr %29, align 8, !tbaa !199
  call void @llvm.lifetime.end.p0(i64 8, ptr %5) #8
  ret void
}