; Function Attrs: nounwind uwtable
define internal void @_init_text(ptr noundef %0, ptr nocapture noundef readonly %1) #0 {
  %3 = getelementptr inbounds nuw i8, ptr %0, i64 464
  tail call void @lv_matrix_identity(ptr noundef nonnull %3) #9
  %4 = tail call ptr @lv_strdup(ptr noundef nonnull @.str) #9
  %5 = getelementptr inbounds nuw i8, ptr %0, i64 600
  store ptr %4, ptr %5, align 8, !tbaa !198
  %6 = getelementptr inbounds nuw i8, ptr %0, i64 608
  store float 1.600000e+01, ptr %6, align 8, !tbaa !199
  %7 = getelementptr inbounds nuw i8, ptr %0, i64 612
  %8 = getelementptr inbounds nuw i8, ptr %0, i64 576
  %9 = getelementptr inbounds nuw i8, ptr %1, i64 16
  tail call void @llvm.memset.p0.i64(ptr noundef nonnull align 4 dereferenceable(20) %7, i8 0, i64 20, i1 false)
  %10 = load i32, ptr %9, align 8, !tbaa !148
  tail call void @lv_array_init(ptr noundef nonnull %8, i32 noundef %10, i32 noundef 8) #9
  %11 = tail call ptr @lv_vector_path_create(i32 noundef 0) #9
  %12 = getelementptr inbounds nuw i8, ptr %0, i64 632
  store ptr %11, ptr %12, align 8, !tbaa !200
  ret void
}